#include <math.h>
#include <stdio.h>
#include <stdlib.h>
#include <string.h>
#include <iostream>
using namespace std;

int main()
{
	int n=0,i=0,k=0;//n?????????,i?????,??k?????
	int c=0;//c?????????????????
	cin>>n;
	int num[n];//??????
	for(i=0;i<=n-1;i++)
	{
		cin>>k;
		num[i]=k;
	}
	int del;//del??????
	cin>>del;
	for(i=0;i<=n-1;i++)
	{
		if(num[i]!=del)
		  c=i;
	}//??c??
	for(i=0;i<=c-1;i++)
	{
		if(num[i]!=del)
			cout<<num[i]<<" ";
	}//??num[c]????????
	cout<<num[c];//????c??????????
	return 0;
}
