; ModuleID = 'source-C-CXX/41/1667.cpp'
source_filename = "source-C-CXX/41/1667.cpp"
target datalayout = "e-m:e-p270:32:32-p271:32:32-p272:64:64-i64:64-f80:128-n8:16:32:64-S128"
target triple = "x86_64-pc-linux-gnu"

%"class.std::ios_base::Init" = type { i8 }
%"class.std::basic_istream" = type { i32 (...)**, i64, %"class.std::basic_ios" }
%"class.std::basic_ios" = type { %"class.std::ios_base", %"class.std::basic_ostream"*, i8, i8, %"class.std::basic_streambuf"*, %"class.std::ctype"*, %"class.std::num_put"*, %"class.std::num_get"* }
%"class.std::ios_base" = type { i32 (...)**, i64, i64, i32, i32, i32, %"struct.std::ios_base::_Callback_list"*, %"struct.std::ios_base::_Words", [8 x %"struct.std::ios_base::_Words"], i32, %"struct.std::ios_base::_Words"*, %"class.std::locale" }
%"struct.std::ios_base::_Callback_list" = type { %"struct.std::ios_base::_Callback_list"*, void (i32, %"class.std::ios_base"*, i32)*, i32, i32 }
%"struct.std::ios_base::_Words" = type { i8*, i64 }
%"class.std::locale" = type { %"class.std::locale::_Impl"* }
%"class.std::locale::_Impl" = type { i32, %"class.std::locale::facet"**, i64, %"class.std::locale::facet"**, i8** }
%"class.std::locale::facet" = type <{ i32 (...)**, i32, [4 x i8] }>
%"class.std::basic_ostream" = type { i32 (...)**, %"class.std::basic_ios" }
%"class.std::basic_streambuf" = type { i32 (...)**, i8*, i8*, i8*, i8*, i8*, i8*, %"class.std::locale" }
%"class.std::ctype" = type <{ %"class.std::locale::facet.base", [4 x i8], %struct.__locale_struct*, i8, [7 x i8], i32*, i32*, i16*, i8, [256 x i8], [256 x i8], i8, [6 x i8] }>
%"class.std::locale::facet.base" = type <{ i32 (...)**, i32 }>
%struct.__locale_struct = type { [13 x %struct.__locale_data*], i16*, i32*, i32*, [13 x i8*] }
%struct.__locale_data = type opaque
%"class.std::num_put" = type { %"class.std::locale::facet.base", [4 x i8] }
%"class.std::num_get" = type { %"class.std::locale::facet.base", [4 x i8] }

@_ZStL8__ioinit = internal global %"class.std::ios_base::Init" zeroinitializer, align 1
@__dso_handle = external hidden global i8
@_ZSt3cin = external global %"class.std::basic_istream", align 8
@_ZSt4cout = external global %"class.std::basic_ostream", align 8
@.str = private unnamed_addr constant [2 x i8] c" \00", align 1
@llvm.global_ctors = appending global [1 x { i32, void ()*, i8* }] [{ i32, void ()*, i8* } { i32 65535, void ()* @_GLOBAL__sub_I_1667.cpp, i8* null }]

declare void @_ZNSt8ios_base4InitC1Ev(%"class.std::ios_base::Init"* nonnull align 1 dereferenceable(1)) unnamed_addr #0

; Function Attrs: nounwind
declare void @_ZNSt8ios_base4InitD1Ev(%"class.std::ios_base::Init"* nonnull align 1 dereferenceable(1)) unnamed_addr #1

; Function Attrs: nofree nounwind
declare i32 @__cxa_atexit(void (i8*)*, i8*, i8*) local_unnamed_addr #2

; Function Attrs: mustprogress norecurse sspstrong uwtable
define dso_local i32 @main() local_unnamed_addr #3 {
  %1 = alloca i32, align 4
  %2 = alloca i32, align 4
  %3 = alloca i32, align 4
  %4 = bitcast i32* %1 to i8*
  call void @llvm.lifetime.start.p0i8(i64 4, i8* nonnull %4) #7
  store i32 0, i32* %1, align 4, !tbaa !5
  %5 = bitcast i32* %2 to i8*
  call void @llvm.lifetime.start.p0i8(i64 4, i8* nonnull %5) #7
  store i32 0, i32* %2, align 4, !tbaa !5
  %6 = call nonnull align 8 dereferenceable(16) %"class.std::basic_istream"* @_ZNSirsERi(%"class.std::basic_istream"* nonnull align 8 dereferenceable(16) @_ZSt3cin, i32* nonnull align 4 dereferenceable(4) %1)
  %7 = load i32, i32* %1, align 4, !tbaa !5
  %8 = zext i32 %7 to i64
  %9 = call i8* @llvm.stacksave()
  %10 = alloca i32, i64 %8, align 16
  %11 = load i32, i32* %1, align 4, !tbaa !5
  %12 = icmp sgt i32 %11, 0
  br i1 %12, label %13, label %22

13:                                               ; preds = %0, %13
  %14 = phi i64 [ %18, %13 ], [ 0, %0 ]
  %15 = call nonnull align 8 dereferenceable(16) %"class.std::basic_istream"* @_ZNSirsERi(%"class.std::basic_istream"* nonnull align 8 dereferenceable(16) @_ZSt3cin, i32* nonnull align 4 dereferenceable(4) %2)
  %16 = load i32, i32* %2, align 4, !tbaa !5
  %17 = getelementptr inbounds i32, i32* %10, i64 %14
  store i32 %16, i32* %17, align 4, !tbaa !5
  %18 = add nuw nsw i64 %14, 1
  %19 = load i32, i32* %1, align 4, !tbaa !5
  %20 = sext i32 %19 to i64
  %21 = icmp slt i64 %18, %20
  br i1 %21, label %13, label %22, !llvm.loop !9

22:                                               ; preds = %13, %0
  %23 = bitcast i32* %3 to i8*
  call void @llvm.lifetime.start.p0i8(i64 4, i8* nonnull %23) #7
  %24 = call nonnull align 8 dereferenceable(16) %"class.std::basic_istream"* @_ZNSirsERi(%"class.std::basic_istream"* nonnull align 8 dereferenceable(16) @_ZSt3cin, i32* nonnull align 4 dereferenceable(4) %3)
  %25 = load i32, i32* %1, align 4, !tbaa !5
  %26 = load i32, i32* %3, align 4
  %27 = icmp sgt i32 %25, 0
  br i1 %27, label %28, label %101

28:                                               ; preds = %22
  %29 = zext i32 %25 to i64
  %30 = add nsw i64 %29, -1
  %31 = and i64 %29, 3
  %32 = icmp ult i64 %30, 3
  br i1 %32, label %35, label %33

33:                                               ; preds = %28
  %34 = and i64 %29, 4294967292
  br label %57

35:                                               ; preds = %57, %28
  %36 = phi i32 [ undef, %28 ], [ %83, %57 ]
  %37 = phi i64 [ 0, %28 ], [ %84, %57 ]
  %38 = phi i32 [ 0, %28 ], [ %83, %57 ]
  %39 = icmp eq i64 %31, 0
  br i1 %39, label %52, label %40

40:                                               ; preds = %35, %40
  %41 = phi i64 [ %49, %40 ], [ %37, %35 ]
  %42 = phi i32 [ %48, %40 ], [ %38, %35 ]
  %43 = phi i64 [ %50, %40 ], [ %31, %35 ]
  %44 = getelementptr inbounds i32, i32* %10, i64 %41
  %45 = load i32, i32* %44, align 4, !tbaa !5
  %46 = icmp eq i32 %45, %26
  %47 = trunc i64 %41 to i32
  %48 = select i1 %46, i32 %42, i32 %47
  %49 = add nuw nsw i64 %41, 1
  %50 = add i64 %43, -1
  %51 = icmp eq i64 %50, 0
  br i1 %51, label %52, label %40, !llvm.loop !11

52:                                               ; preds = %40, %35
  %53 = phi i32 [ %36, %35 ], [ %48, %40 ]
  %54 = icmp sgt i32 %53, 0
  br i1 %54, label %55, label %101

55:                                               ; preds = %52
  %56 = zext i32 %53 to i64
  br label %87

57:                                               ; preds = %57, %33
  %58 = phi i64 [ 0, %33 ], [ %84, %57 ]
  %59 = phi i32 [ 0, %33 ], [ %83, %57 ]
  %60 = phi i64 [ %34, %33 ], [ %85, %57 ]
  %61 = getelementptr inbounds i32, i32* %10, i64 %58
  %62 = load i32, i32* %61, align 16, !tbaa !5
  %63 = icmp eq i32 %62, %26
  %64 = trunc i64 %58 to i32
  %65 = select i1 %63, i32 %59, i32 %64
  %66 = or i64 %58, 1
  %67 = getelementptr inbounds i32, i32* %10, i64 %66
  %68 = load i32, i32* %67, align 4, !tbaa !5
  %69 = icmp eq i32 %68, %26
  %70 = trunc i64 %66 to i32
  %71 = select i1 %69, i32 %65, i32 %70
  %72 = or i64 %58, 2
  %73 = getelementptr inbounds i32, i32* %10, i64 %72
  %74 = load i32, i32* %73, align 8, !tbaa !5
  %75 = icmp eq i32 %74, %26
  %76 = trunc i64 %72 to i32
  %77 = select i1 %75, i32 %71, i32 %76
  %78 = or i64 %58, 3
  %79 = getelementptr inbounds i32, i32* %10, i64 %78
  %80 = load i32, i32* %79, align 4, !tbaa !5
  %81 = icmp eq i32 %80, %26
  %82 = trunc i64 %78 to i32
  %83 = select i1 %81, i32 %77, i32 %82
  %84 = add nuw nsw i64 %58, 4
  %85 = add i64 %60, -4
  %86 = icmp eq i64 %85, 0
  br i1 %86, label %35, label %57, !llvm.loop !13

87:                                               ; preds = %99, %55
  %88 = phi i32 [ %26, %55 ], [ %100, %99 ]
  %89 = phi i64 [ 0, %55 ], [ %97, %99 ]
  %90 = getelementptr inbounds i32, i32* %10, i64 %89
  %91 = load i32, i32* %90, align 4, !tbaa !5
  %92 = icmp eq i32 %91, %88
  br i1 %92, label %96, label %93

93:                                               ; preds = %87
  %94 = call nonnull align 8 dereferenceable(8) %"class.std::basic_ostream"* @_ZNSolsEi(%"class.std::basic_ostream"* nonnull align 8 dereferenceable(8) @_ZSt4cout, i32 %91)
  %95 = call nonnull align 8 dereferenceable(8) %"class.std::basic_ostream"* @_ZSt16__ostream_insertIcSt11char_traitsIcEERSt13basic_ostreamIT_T0_ES6_PKS3_l(%"class.std::basic_ostream"* nonnull align 8 dereferenceable(8) %94, i8* nonnull getelementptr inbounds ([2 x i8], [2 x i8]* @.str, i64 0, i64 0), i64 1)
  br label %96

96:                                               ; preds = %87, %93
  %97 = add nuw nsw i64 %89, 1
  %98 = icmp eq i64 %97, %56
  br i1 %98, label %101, label %99, !llvm.loop !14

99:                                               ; preds = %96
  %100 = load i32, i32* %3, align 4, !tbaa !5
  br label %87

101:                                              ; preds = %96, %22, %52
  %102 = phi i32 [ %53, %52 ], [ 0, %22 ], [ %53, %96 ]
  %103 = sext i32 %102 to i64
  %104 = getelementptr inbounds i32, i32* %10, i64 %103
  %105 = load i32, i32* %104, align 4, !tbaa !5
  %106 = call nonnull align 8 dereferenceable(8) %"class.std::basic_ostream"* @_ZNSolsEi(%"class.std::basic_ostream"* nonnull align 8 dereferenceable(8) @_ZSt4cout, i32 %105)
  call void @llvm.lifetime.end.p0i8(i64 4, i8* nonnull %23) #7
  call void @llvm.stackrestore(i8* %9)
  call void @llvm.lifetime.end.p0i8(i64 4, i8* nonnull %5) #7
  call void @llvm.lifetime.end.p0i8(i64 4, i8* nonnull %4) #7
  ret i32 0
}

; Function Attrs: argmemonly mustprogress nofree nosync nounwind willreturn
declare void @llvm.lifetime.start.p0i8(i64 immarg, i8* nocapture) #4

declare nonnull align 8 dereferenceable(16) %"class.std::basic_istream"* @_ZNSirsERi(%"class.std::basic_istream"* nonnull align 8 dereferenceable(16), i32* nonnull align 4 dereferenceable(4)) local_unnamed_addr #0

; Function Attrs: mustprogress nofree nosync nounwind willreturn
declare i8* @llvm.stacksave() #5

declare nonnull align 8 dereferenceable(8) %"class.std::basic_ostream"* @_ZNSolsEi(%"class.std::basic_ostream"* nonnull align 8 dereferenceable(8), i32) local_unnamed_addr #0

; Function Attrs: argmemonly mustprogress nofree nosync nounwind willreturn
declare void @llvm.lifetime.end.p0i8(i64 immarg, i8* nocapture) #4

; Function Attrs: mustprogress nofree nosync nounwind willreturn
declare void @llvm.stackrestore(i8*) #5

declare nonnull align 8 dereferenceable(8) %"class.std::basic_ostream"* @_ZSt16__ostream_insertIcSt11char_traitsIcEERSt13basic_ostreamIT_T0_ES6_PKS3_l(%"class.std::basic_ostream"* nonnull align 8 dereferenceable(8), i8*, i64) local_unnamed_addr #0

; Function Attrs: sspstrong uwtable
define internal void @_GLOBAL__sub_I_1667.cpp() #6 section ".text.startup" {
  tail call void @_ZNSt8ios_base4InitC1Ev(%"class.std::ios_base::Init"* nonnull align 1 dereferenceable(1) @_ZStL8__ioinit)
  %1 = tail call i32 @__cxa_atexit(void (i8*)* bitcast (void (%"class.std::ios_base::Init"*)* @_ZNSt8ios_base4InitD1Ev to void (i8*)*), i8* getelementptr inbounds (%"class.std::ios_base::Init", %"class.std::ios_base::Init"* @_ZStL8__ioinit, i64 0, i32 0), i8* nonnull @__dso_handle) #7
  ret void
}


!llvm.module.flags = !{!0, !1, !2, !3}
!llvm.ident = !{!4}

!0 = !{i32 1, !"wchar_size", i32 4}
!1 = !{i32 7, !"PIC Level", i32 2}
!2 = !{i32 7, !"PIE Level", i32 2}
!3 = !{i32 7, !"uwtable", i32 1}
!4 = !{!"clang version 13.0.0"}
!5 = !{!6, !6, i64 0}
!6 = !{!"int", !7, i64 0}
!7 = !{!"omnipotent char", !8, i64 0}
!8 = !{!"Simple C++ TBAA"}
!9 = distinct !{!9, !10}
!10 = !{!"llvm.loop.mustprogress"}
!11 = distinct !{!11, !12}
!12 = !{!"llvm.loop.unroll.disable"}
!13 = distinct !{!13, !10}
!14 = distinct !{!14, !10}
